target datalayout = "e-m:e-p270:32:32-p271:32:32-p272:64:64-i64:64-i128:128-f80:128-n8:16:32:64-S128"
target triple = "x86_64-pc-linux-gnu"

%struct.bitstream = type { i64, i64, ptr, ptr, ptr }

; Function Attrs: nounwind uwtable
define internal i64 @stream_read_word(ptr noundef %0) #0 {
  %2 = alloca ptr, align 8
  %3 = alloca i64, align 8
  store ptr %0, ptr %2, align 8
  %4 = load ptr, ptr %2, align 8
  %5 = getelementptr inbounds %struct.bitstream, ptr %4, i32 0, i32 2
  %6 = load ptr, ptr %5, align 8
  %7 = getelementptr inbounds i64, ptr %6, i32 1
  store ptr %7, ptr %5, align 8
  %8 = load i64, ptr %6, align 8
  store i64 %8, ptr %3, align 8
  %9 = load i64, ptr %3, align 8
  ret i64 %9
}

; Function Attrs: nounwind uwtable
define i32 @stream_read_bit(ptr noundef %0) #0 {
  %2 = alloca ptr, align 8
  %3 = alloca i32, align 4
  store ptr %0, ptr %2, align 8
  %4 = load ptr, ptr %2, align 8
  %5 = getelementptr inbounds %struct.bitstream, ptr %4, i32 0, i32 0
  %6 = load i64, ptr %5, align 8
  %7 = icmp ne i64 %6, 0
  br i1 %7, label %15, label %8

8:                                                ; preds = %1
  %9 = load ptr, ptr %2, align 8
  %10 = call i64 @stream_read_word(ptr noundef %9)
  %11 = load ptr, ptr %2, align 8
  %12 = getelementptr inbounds %struct.bitstream, ptr %11, i32 0, i32 1
  store i64 %10, ptr %12, align 8
  %13 = load ptr, ptr %2, align 8
  %14 = getelementptr inbounds %struct.bitstream, ptr %13, i32 0, i32 0
  store i64 64, ptr %14, align 8
  br label %15

15:                                               ; preds = %8, %1
  %16 = load ptr, ptr %2, align 8
  %17 = getelementptr inbounds %struct.bitstream, ptr %16, i32 0, i32 0
  %18 = load i64, ptr %17, align 8
  %19 = add i64 %18, -1
  store i64 %19, ptr %17, align 8
  %20 = load ptr, ptr %2, align 8
  %21 = getelementptr inbounds %struct.bitstream, ptr %20, i32 0, i32 1
  %22 = load i64, ptr %21, align 8
  %23 = trunc i64 %22 to i32
  %24 = and i32 %23, 1
  store i32 %24, ptr %3, align 4
  %25 = load ptr, ptr %2, align 8
  %26 = getelementptr inbounds %struct.bitstream, ptr %25, i32 0, i32 1
  %27 = load i64, ptr %26, align 8
  %28 = lshr i64 %27, 1
  store i64 %28, ptr %26, align 8
  %29 = load i32, ptr %3, align 4
  ret i32 %29
}