; Function Attrs: mustprogress nofree norecurse nosync nounwind willreturn memory(read, argmem: readwrite, inaccessiblemem: none) uwtable
define range(i32 0, 2) i32 @stream_read_bit(ptr noundef captures(none) %0) local_unnamed_addr #2 {
  %2 = load i64, ptr %0, align 8
  %.not = icmp eq i64 %2, 0
  br i1 %.not, label %4, label %._crit_edge

._crit_edge:                                      ; preds = %1
  %.phi.trans.insert = getelementptr inbounds nuw i8, ptr %0, i64 8
  %3 = add i64 %2, -1
  br label %8

4:                                                ; preds = %1
  %5 = getelementptr inbounds nuw i8, ptr %0, i64 16
  %6 = load ptr, ptr %5, align 8
  %7 = getelementptr inbounds nuw i8, ptr %6, i64 8
  store ptr %7, ptr %5, align 8
  br label %8

8:                                                ; preds = %._crit_edge, %4
  %.in = phi ptr [ %6, %4 ], [ %.phi.trans.insert, %._crit_edge ]
  %9 = phi i64 [ 63, %4 ], [ %3, %._crit_edge ]
  %10 = load i64, ptr %.in, align 8
  store i64 %9, ptr %0, align 8
  %11 = getelementptr inbounds nuw i8, ptr %0, i64 8
  %12 = trunc i64 %10 to i32
  %13 = and i32 %12, 1
  %14 = lshr i64 %10, 1
  store i64 %14, ptr %11, align 8
  ret i32 %13
}